; Function Attrs: mustprogress uwtable
define internal fastcc noundef ptr @_ZL19mk_qfnia_smt_solverR11ast_managerRK10params_ref(ptr noundef nonnull align 8 dereferenceable(976) %m, ptr noundef nonnull align 8 dereferenceable(8) %p) unnamed_addr #3 personality ptr @__gxx_personality_v0 {
entry:
  %simp_p = alloca %class.params_ref, align 8
  %ref.tmp = alloca %class.params_ref, align 8
  %ref.tmp6 = alloca %class.params_ref, align 8
  call void @_ZN10params_refC1ERKS_(ptr noundef nonnull align 8 dereferenceable(8) %simp_p, ptr noundef nonnull align 8 dereferenceable(8) %p)
  invoke void @_ZN10params_ref8set_boolEPKcb(ptr noundef nonnull align 8 dereferenceable(8) %simp_p, ptr noundef nonnull @.str.22, i1 noundef zeroext true)
          to label %invoke.cont unwind label %lpad

invoke.cont:                                      ; preds = %entry
  store ptr null, ptr %ref.tmp, align 8
  %call = invoke noundef ptr @_Z18mk_simplify_tacticR11ast_managerRK10params_ref(ptr noundef nonnull align 8 dereferenceable(976) %m, ptr noundef nonnull align 8 dereferenceable(8) %ref.tmp)
          to label %invoke.cont3 unwind label %lpad2

invoke.cont3:                                     ; preds = %invoke.cont
  %call5 = invoke noundef ptr @_Z12using_paramsP6tacticRK10params_ref(ptr noundef %call, ptr noundef nonnull align 8 dereferenceable(8) %simp_p)
          to label %invoke.cont4 unwind label %lpad2

invoke.cont4:                                     ; preds = %invoke.cont3
  store ptr null, ptr %ref.tmp6, align 8
  %call10 = invoke noundef ptr @_Z13mk_smt_tacticR11ast_managerRK10params_ref(ptr noundef nonnull align 8 dereferenceable(976) %m, ptr noundef nonnull align 8 dereferenceable(8) %ref.tmp6)
          to label %invoke.cont9 unwind label %lpad8

invoke.cont9:                                     ; preds = %invoke.cont4
  %call12 = invoke noundef ptr @_Z8and_thenP6tacticS0_(ptr noundef %call5, ptr noundef %call10)
          to label %invoke.cont11 unwind label %lpad8

invoke.cont11:                                    ; preds = %invoke.cont9
  call void @_ZN10params_refD1Ev(ptr noundef nonnull align 8 dereferenceable(8) %ref.tmp6) #16
  call void @_ZN10params_refD1Ev(ptr noundef nonnull align 8 dereferenceable(8) %ref.tmp) #16
  call void @_ZN10params_refD1Ev(ptr noundef nonnull align 8 dereferenceable(8) %simp_p) #16
  ret ptr %call12

lpad:                                             ; preds = %entry
  %0 = landingpad { ptr, i32 }
          cleanup
  br label %ehcleanup13

lpad2:                                            ; preds = %invoke.cont3, %invoke.cont
  %1 = landingpad { ptr, i32 }
          cleanup
  br label %ehcleanup

lpad8:                                            ; preds = %invoke.cont9, %invoke.cont4
  %2 = landingpad { ptr, i32 }
          cleanup
  call void @_ZN10params_refD1Ev(ptr noundef nonnull align 8 dereferenceable(8) %ref.tmp6) #16
  br label %ehcleanup

ehcleanup:                                        ; preds = %lpad8, %lpad2
  %.pn = phi { ptr, i32 } [ %2, %lpad8 ], [ %1, %lpad2 ]
  call void @_ZN10params_refD1Ev(ptr noundef nonnull align 8 dereferenceable(8) %ref.tmp) #16
  br label %ehcleanup13

ehcleanup13:                                      ; preds = %ehcleanup, %lpad
  %.pn.pn = phi { ptr, i32 } [ %.pn, %ehcleanup ], [ %0, %lpad ]
  call void @_ZN10params_refD1Ev(ptr noundef nonnull align 8 dereferenceable(8) %simp_p) #16
  resume { ptr, i32 } %.pn.pn
}